; Function Attrs: nounwind uwtable
define ptr @l_Lean_Elab_ComputedFields_initFn____x40_Lean_Elab_ComputedFields___hyg_5____lambda__1(ptr noundef readnone captures(none) %0, ptr noundef %1, ptr noundef %2, ptr noundef %3) local_unnamed_addr #0 {
  %5 = getelementptr inbounds nuw i8, ptr %1, i64 24
  %6 = load ptr, ptr %5, align 8, !tbaa !4
  %7 = load ptr, ptr @l_Lean_Elab_ComputedFields_initFn____x40_Lean_Elab_ComputedFields___hyg_5____lambda__1___closed__2, align 8, !tbaa !4
  %8 = tail call zeroext i8 @l_Lean_KVMap_getBool(ptr noundef %6, ptr noundef %7, i8 noundef zeroext 0) #4
  %9 = icmp eq i8 %8, 0
  br i1 %9, label %10, label %13

10:                                               ; preds = %4
  %11 = load ptr, ptr @l_Lean_Elab_ComputedFields_initFn____x40_Lean_Elab_ComputedFields___hyg_5____lambda__1___closed__4, align 8, !tbaa !4
  %12 = tail call ptr @l_Lean_throwError___at_Lean_Attribute_Builtin_ensureNoArgs___spec__2(ptr noundef %11, ptr noundef nonnull %1, ptr noundef %2, ptr noundef %3) #4
  br label %20

13:                                               ; preds = %4
  tail call void @lean_inc_heartbeat() #4
  %14 = tail call noalias ptr @mi_malloc_small(i64 noundef 24) #4
  %15 = icmp eq ptr %14, null
  br i1 %15, label %16, label %lean_alloc_ctor.exit

16:                                               ; preds = %13
  tail call void @lean_internal_panic_out_of_memory() #5
  unreachable

lean_alloc_ctor.exit:                             ; preds = %13
  %17 = getelementptr inbounds nuw i8, ptr %14, i64 4
  store i32 1, ptr %14, align 4, !tbaa !8
  store i32 131096, ptr %17, align 4
  %18 = getelementptr inbounds nuw i8, ptr %14, i64 8
  store ptr inttoptr (i64 1 to ptr), ptr %18, align 8, !tbaa !4
  %19 = getelementptr inbounds nuw i8, ptr %14, i64 16
  store ptr %3, ptr %19, align 8, !tbaa !4
  br label %20

20:                                               ; preds = %lean_alloc_ctor.exit, %10
  %.0 = phi ptr [ %12, %10 ], [ %14, %lean_alloc_ctor.exit ]
  ret ptr %.0
}